target datalayout = "e-m:e-p270:32:32-p271:32:32-p272:64:64-i64:64-i128:128-f80:128-n8:16:32:64-S128"
target triple = "x86_64-pc-linux-gnu"

%struct.__jmp_buf_tag = type { [8 x i64], i32, %struct.__sigset_t }
%struct.__sigset_t = type { [16 x i64] }
%struct.png_image = type { ptr, i32, i32, i32, i32, i32, i32, i32, [64 x i8] }
%struct.png_control = type { ptr, ptr, ptr, ptr, i64, i8 }

; Function Attrs: nounwind uwtable
define i32 @png_safe_execute(ptr noundef %0, ptr noundef %1, ptr noundef %2) #1 {
  %4 = alloca i32, align 4
  %5 = alloca ptr, align 8
  %6 = alloca ptr, align 8
  %7 = alloca ptr, align 8
  %8 = alloca ptr, align 8
  %9 = alloca [1 x %struct.__jmp_buf_tag], align 16
  %10 = alloca i32, align 4
  %11 = alloca i32, align 4
  store ptr %0, ptr %5, align 8, !tbaa !44
  store ptr %1, ptr %6, align 8, !tbaa !44
  store ptr %2, ptr %7, align 8, !tbaa !44
  call void @llvm.lifetime.start.p0(i64 8, ptr %8) #10
  %12 = load ptr, ptr %5, align 8, !tbaa !44
  %13 = getelementptr inbounds nuw %struct.png_image, ptr %12, i32 0, i32 0
  %14 = load ptr, ptr %13, align 8, !tbaa !53
  %15 = getelementptr inbounds nuw %struct.png_control, ptr %14, i32 0, i32 2
  %16 = load ptr, ptr %15, align 8, !tbaa !54
  store ptr %16, ptr %8, align 8, !tbaa !44
  call void @llvm.lifetime.start.p0(i64 200, ptr %9) #10
  call void @llvm.lifetime.start.p0(i64 4, ptr %10) #10
  %17 = getelementptr inbounds [1 x %struct.__jmp_buf_tag], ptr %9, i64 0, i64 0
  %18 = call i32 @_setjmp(ptr noundef %17) #11
  %19 = icmp eq i32 %18, 0
  br i1 %19, label %20, label %35

20:                                               ; preds = %3
  %21 = getelementptr inbounds [1 x %struct.__jmp_buf_tag], ptr %9, i64 0, i64 0
  %22 = load ptr, ptr %5, align 8, !tbaa !44
  %23 = getelementptr inbounds nuw %struct.png_image, ptr %22, i32 0, i32 0
  %24 = load ptr, ptr %23, align 8, !tbaa !53
  %25 = getelementptr inbounds nuw %struct.png_control, ptr %24, i32 0, i32 2
  store ptr %21, ptr %25, align 8, !tbaa !54
  %26 = load ptr, ptr %6, align 8, !tbaa !44
  %27 = load ptr, ptr %7, align 8, !tbaa !44
  %28 = call i32 %26(ptr noundef %27)
  store i32 %28, ptr %10, align 4, !tbaa !31
  %29 = load ptr, ptr %8, align 8, !tbaa !44
  %30 = load ptr, ptr %5, align 8, !tbaa !44
  %31 = getelementptr inbounds nuw %struct.png_image, ptr %30, i32 0, i32 0
  %32 = load ptr, ptr %31, align 8, !tbaa !53
  %33 = getelementptr inbounds nuw %struct.png_control, ptr %32, i32 0, i32 2
  store ptr %29, ptr %33, align 8, !tbaa !54
  %34 = load i32, ptr %10, align 4, !tbaa !31
  store i32 %34, ptr %4, align 4
  store i32 1, ptr %11, align 4
  br label %42

35:                                               ; preds = %3
  %36 = load ptr, ptr %8, align 8, !tbaa !44
  %37 = load ptr, ptr %5, align 8, !tbaa !44
  %38 = getelementptr inbounds nuw %struct.png_image, ptr %37, i32 0, i32 0
  %39 = load ptr, ptr %38, align 8, !tbaa !53
  %40 = getelementptr inbounds nuw %struct.png_control, ptr %39, i32 0, i32 2
  store ptr %36, ptr %40, align 8, !tbaa !54
  %41 = load ptr, ptr %5, align 8, !tbaa !44
  call void @png_image_free(ptr noundef %41)
  store i32 0, ptr %4, align 4
  store i32 1, ptr %11, align 4
  br label %42

42:                                               ; preds = %35, %20
  call void @llvm.lifetime.end.p0(i64 4, ptr %10) #10
  call void @llvm.lifetime.end.p0(i64 200, ptr %9) #10
  call void @llvm.lifetime.end.p0(i64 8, ptr %8) #10
  %43 = load i32, ptr %4, align 4
  ret i32 %43
}