; Function Attrs: nounwind uwtable
define i32 @png_safe_execute(ptr noundef %0, ptr noundef readonly captures(none) %1, ptr noundef %2) local_unnamed_addr #5 {
  %4 = alloca [1 x %struct.__jmp_buf_tag], align 16
  %5 = load ptr, ptr %0, align 8, !tbaa !80
  %6 = getelementptr inbounds nuw i8, ptr %5, i64 16
  %7 = load ptr, ptr %6, align 8, !tbaa !81
  call void @llvm.lifetime.start.p0(i64 200, ptr nonnull %4) #21
  %8 = call i32 @_setjmp(ptr noundef nonnull %4) #24
  %9 = icmp eq i32 %8, 0
  %10 = load ptr, ptr %0, align 8, !tbaa !80
  %11 = getelementptr inbounds nuw i8, ptr %10, i64 16
  br i1 %9, label %12, label %16

12:                                               ; preds = %3
  store ptr %4, ptr %11, align 8, !tbaa !81
  %13 = call i32 %1(ptr noundef %2) #21
  %14 = load ptr, ptr %0, align 8, !tbaa !80
  %15 = getelementptr inbounds nuw i8, ptr %14, i64 16
  store ptr %7, ptr %15, align 8, !tbaa !81
  br label %17

16:                                               ; preds = %3
  store ptr %7, ptr %11, align 8, !tbaa !81
  call void @png_image_free(ptr noundef nonnull %0) #21
  br label %17

17:                                               ; preds = %16, %12
  %.0 = phi i32 [ %13, %12 ], [ 0, %16 ]
  call void @llvm.lifetime.end.p0(i64 200, ptr nonnull %4) #21
  ret i32 %.0
}